target datalayout = "e-m:e-p270:32:32-p271:32:32-p272:64:64-i64:64-i128:128-f80:128-n8:16:32:64-S128"
target triple = "x86_64-pc-linux-gnu"

%struct.stat = type { i64, i64, i64, i32, i32, i32, i32, i64, i64, i64, i64, %struct.timespec, %struct.timespec, %struct.timespec, [3 x i64] }
%struct.timespec = type { i64, i64 }

@.str.19 = private unnamed_addr constant [7 x i8] c"task.c\00", align 1
@__func__._build_path = private unnamed_addr constant [12 x i8] c"_build_path\00", align 1
@.str.37 = private unnamed_addr constant [18 x i8] c"getcwd failed: %m\00", align 1
@.str.38 = private unnamed_addr constant [6 x i8] c"%s/%s\00", align 1
@.str.39 = private unnamed_addr constant [5 x i8] c"PATH\00", align 1
@.str.40 = private unnamed_addr constant [2 x i8] c":\00", align 1

; Function Attrs: nounwind uwtable
define internal ptr @_build_path(ptr noundef %0, ptr noundef %1) #0 {
  %3 = alloca ptr, align 8
  %4 = alloca ptr, align 8
  %5 = alloca ptr, align 8
  %6 = alloca ptr, align 8
  %7 = alloca ptr, align 8
  %8 = alloca ptr, align 8
  %9 = alloca ptr, align 8
  %10 = alloca %struct.stat, align 8
  %11 = alloca i32, align 4
  %12 = alloca i32, align 4
  store ptr %0, ptr %4, align 8
  store ptr %1, ptr %5, align 8
  call void @llvm.lifetime.start.p0(i64 8, ptr %6) #8
  store ptr null, ptr %6, align 8
  call void @llvm.lifetime.start.p0(i64 8, ptr %7) #8
  store ptr null, ptr %7, align 8
  call void @llvm.lifetime.start.p0(i64 8, ptr %8) #8
  call void @llvm.lifetime.start.p0(i64 8, ptr %9) #8
  store ptr null, ptr %9, align 8
  call void @llvm.lifetime.start.p0(i64 144, ptr %10) #8
  call void @llvm.lifetime.start.p0(i64 4, ptr %11) #8
  store i32 4096, ptr %11, align 4
  %13 = load ptr, ptr %4, align 8
  %14 = icmp ne ptr %13, null
  br i1 %14, label %16, label %15

15:                                               ; preds = %2
  store ptr null, ptr %3, align 8
  store i32 1, ptr %12, align 4
  br label %99

16:                                               ; preds = %2
  %17 = load i32, ptr %11, align 4
  %18 = sext i32 %17 to i64
  %19 = call ptr @slurm_xcalloc(i64 noundef 1, i64 noundef %18, i1 noundef zeroext true, i1 noundef zeroext false, ptr noundef @.str.19, i32 noundef 240, ptr noundef @__func__._build_path)
  store ptr %19, ptr %8, align 8
  %20 = load ptr, ptr %4, align 8
  %21 = getelementptr inbounds i8, ptr %20, i64 0
  %22 = load i8, ptr %21, align 1
  %23 = sext i8 %22 to i32
  %24 = icmp eq i32 %23, 47
  br i1 %24, label %25, label %32

25:                                               ; preds = %16
  %26 = load ptr, ptr %8, align 8
  %27 = load ptr, ptr %4, align 8
  %28 = load i32, ptr %11, align 4
  %29 = sext i32 %28 to i64
  %30 = call i64 @strlcpy(ptr noundef %26, ptr noundef %27, i64 noundef %29)
  %31 = load ptr, ptr %8, align 8
  store ptr %31, ptr %3, align 8
  store i32 1, ptr %12, align 4
  br label %99

32:                                               ; preds = %16
  %33 = load ptr, ptr %4, align 8
  %34 = getelementptr inbounds i8, ptr %33, i64 0
  %35 = load i8, ptr %34, align 1
  %36 = sext i8 %35 to i32
  %37 = icmp eq i32 %36, 46
  br i1 %37, label %38, label %57

38:                                               ; preds = %32
  %39 = load i32, ptr %11, align 4
  %40 = sext i32 %39 to i64
  %41 = call ptr @slurm_xcalloc(i64 noundef 1, i64 noundef %40, i1 noundef zeroext true, i1 noundef zeroext false, ptr noundef @.str.19, i32 noundef 250, ptr noundef @__func__._build_path)
  store ptr %41, ptr %7, align 8
  %42 = load ptr, ptr %7, align 8
  %43 = load i32, ptr %11, align 4
  %44 = sext i32 %43 to i64
  %45 = call ptr @getcwd(ptr noundef %42, i64 noundef %44) #8
  %46 = icmp ne ptr %45, null
  br i1 %46, label %49, label %47

47:                                               ; preds = %38
  %48 = call i32 (ptr, ...) @error(ptr noundef @.str.37)
  br label %49

49:                                               ; preds = %47, %38
  %50 = load ptr, ptr %8, align 8
  %51 = load i32, ptr %11, align 4
  %52 = sext i32 %51 to i64
  %53 = load ptr, ptr %7, align 8
  %54 = load ptr, ptr %4, align 8
  %55 = call i32 (ptr, i64, ptr, ...) @snprintf(ptr noundef %50, i64 noundef %52, ptr noundef @.str.38, ptr noundef %53, ptr noundef %54) #8
  call void @slurm_xfree(ptr noundef %7)
  %56 = load ptr, ptr %8, align 8
  store ptr %56, ptr %3, align 8
  store i32 1, ptr %12, align 4
  br label %99

57:                                               ; preds = %32
  %58 = load ptr, ptr %5, align 8
  %59 = call ptr @getenvp(ptr noundef %58, ptr noundef @.str.39)
  %60 = call ptr @xstrdup(ptr noundef %59)
  store ptr %60, ptr %6, align 8
  %61 = load ptr, ptr %6, align 8
  %62 = icmp ne ptr %61, null
  br i1 %62, label %63, label %66

63:                                               ; preds = %57
  %64 = load ptr, ptr %6, align 8
  %65 = call ptr @strtok_r(ptr noundef %64, ptr noundef @.str.40, ptr noundef %9) #8
  store ptr %65, ptr %7, align 8
  br label %66

66:                                               ; preds = %63, %57
  br label %67

67:                                               ; preds = %86, %66
  %68 = load ptr, ptr %7, align 8
  %69 = icmp ne ptr %68, null
  br i1 %69, label %70, label %88

70:                                               ; preds = %67
  %71 = load ptr, ptr %8, align 8
  %72 = load i32, ptr %11, align 4
  %73 = sext i32 %72 to i64
  %74 = load ptr, ptr %7, align 8
  %75 = load ptr, ptr %4, align 8
  %76 = call i32 (ptr, i64, ptr, ...) @snprintf(ptr noundef %71, i64 noundef %73, ptr noundef @.str.38, ptr noundef %74, ptr noundef %75) #8
  %77 = load ptr, ptr %8, align 8
  %78 = call i32 @stat(ptr noundef %77, ptr noundef %10) #8
  %79 = icmp eq i32 %78, 0
  br i1 %79, label %80, label %86

80:                                               ; preds = %70
  %81 = getelementptr inbounds nuw %struct.stat, ptr %10, i32 0, i32 3
  %82 = load i32, ptr %81, align 8
  %83 = and i32 %82, 61440
  %84 = icmp eq i32 %83, 16384
  br i1 %84, label %86, label %85

85:                                               ; preds = %80
  br label %88

86:                                               ; preds = %80, %70
  %87 = call ptr @strtok_r(ptr noundef null, ptr noundef @.str.40, ptr noundef %9) #8
  store ptr %87, ptr %7, align 8
  br label %67, !llvm.loop !13

88:                                               ; preds = %85, %67
  %89 = load ptr, ptr %7, align 8
  %90 = icmp eq ptr %89, null
  br i1 %90, label %91, label %97

91:                                               ; preds = %88
  %92 = load ptr, ptr %8, align 8
  %93 = load ptr, ptr %4, align 8
  %94 = load i32, ptr %11, align 4
  %95 = sext i32 %94 to i64
  %96 = call i64 @strlcpy(ptr noundef %92, ptr noundef %93, i64 noundef %95)
  br label %97

97:                                               ; preds = %91, %88
  call void @slurm_xfree(ptr noundef %6)
  %98 = load ptr, ptr %8, align 8
  store ptr %98, ptr %3, align 8
  store i32 1, ptr %12, align 4
  br label %99

99:                                               ; preds = %97, %49, %25, %15
  call void @llvm.lifetime.end.p0(i64 4, ptr %11) #8
  call void @llvm.lifetime.end.p0(i64 144, ptr %10) #8
  call void @llvm.lifetime.end.p0(i64 8, ptr %9) #8
  call void @llvm.lifetime.end.p0(i64 8, ptr %8) #8
  call void @llvm.lifetime.end.p0(i64 8, ptr %7) #8
  call void @llvm.lifetime.end.p0(i64 8, ptr %6) #8
  %100 = load ptr, ptr %3, align 8
  ret ptr %100
}