; Function Attrs: nounwind uwtable
define internal fastcc ptr @_build_path(ptr noundef nonnull %0, ptr noundef %1) unnamed_addr #5 {
  %3 = alloca ptr, align 8
  %4 = alloca ptr, align 8
  %5 = alloca ptr, align 8
  %6 = alloca %struct.stat, align 8
  call void @llvm.lifetime.start.p0(i64 8, ptr nonnull %3) #12
  call void @llvm.lifetime.start.p0(i64 8, ptr nonnull %4) #12
  call void @llvm.lifetime.start.p0(i64 8, ptr nonnull %5) #12
  store ptr null, ptr %5, align 8
  call void @llvm.lifetime.start.p0(i64 144, ptr nonnull %6) #12
  %7 = tail call ptr @slurm_xcalloc(i64 noundef 1, i64 noundef 4096, i1 noundef zeroext true, i1 noundef zeroext false, ptr noundef nonnull @.str.19, i32 noundef 240, ptr noundef nonnull @__func__._build_path) #12
  %8 = load i8, ptr %0, align 1
  switch i8 %8, label %18 [
    i8 47, label %9
    i8 46, label %11
  ]

9:                                                ; preds = %2
  %10 = tail call i64 @strlcpy(ptr noundef nonnull dereferenceable(1) %7, ptr noundef nonnull dereferenceable(1) %0, i64 noundef 4096) #12
  br label %37

11:                                               ; preds = %2
  %12 = tail call ptr @slurm_xcalloc(i64 noundef 1, i64 noundef 4096, i1 noundef zeroext true, i1 noundef zeroext false, ptr noundef nonnull @.str.19, i32 noundef 250, ptr noundef nonnull @__func__._build_path) #12
  store ptr %12, ptr %4, align 8
  %13 = tail call ptr @getcwd(ptr noundef %12, i64 noundef 4096) #12
  %.not28 = icmp eq ptr %13, null
  br i1 %.not28, label %14, label %16

14:                                               ; preds = %11
  %15 = tail call i32 (ptr, ...) @error(ptr noundef nonnull @.str.37) #12
  br label %16

16:                                               ; preds = %14, %11
  %17 = tail call i32 (ptr, i64, ptr, ...) @snprintf(ptr noundef nonnull dereferenceable(1) %7, i64 noundef 4096, ptr noundef nonnull @.str.38, ptr noundef %12, ptr noundef nonnull %0) #12
  call void @slurm_xfree(ptr noundef nonnull %4) #12
  br label %37

18:                                               ; preds = %2
  %19 = tail call ptr @getenvp(ptr noundef %1, ptr noundef nonnull @.str.39) #12
  %20 = tail call ptr @xstrdup(ptr noundef %19) #12
  store ptr %20, ptr %3, align 8
  %.not = icmp eq ptr %20, null
  br i1 %.not, label %._crit_edge.thread, label %21

21:                                               ; preds = %18
  %22 = call ptr @strtok_r(ptr noundef nonnull %20, ptr noundef nonnull @.str.40, ptr noundef nonnull %5) #12
  store ptr %22, ptr %4, align 8
  %23 = getelementptr inbounds nuw i8, ptr %6, i64 24
  %.not2729 = icmp eq ptr %22, null
  br i1 %.not2729, label %._crit_edge.thread, label %.lr.ph

.lr.ph:                                           ; preds = %21, %32
  %24 = phi ptr [ %33, %32 ], [ %22, %21 ]
  %25 = call i32 (ptr, i64, ptr, ...) @snprintf(ptr noundef nonnull dereferenceable(1) %7, i64 noundef 4096, ptr noundef nonnull @.str.38, ptr noundef nonnull %24, ptr noundef nonnull %0) #12
  %26 = call i32 @stat(ptr noundef nonnull %7, ptr noundef nonnull %6) #12
  %27 = icmp eq i32 %26, 0
  br i1 %27, label %28, label %32

28:                                               ; preds = %.lr.ph
  %29 = load i32, ptr %23, align 8
  %30 = and i32 %29, 61440
  %31 = icmp eq i32 %30, 16384
  br i1 %31, label %32, label %._crit_edge

32:                                               ; preds = %28, %.lr.ph
  %33 = call ptr @strtok_r(ptr noundef null, ptr noundef nonnull @.str.40, ptr noundef nonnull %5) #12
  store ptr %33, ptr %4, align 8
  %.not27 = icmp eq ptr %33, null
  br i1 %.not27, label %._crit_edge.thread, label %.lr.ph, !llvm.loop !20

._crit_edge:                                      ; preds = %28
  %.pre.pre = load ptr, ptr %4, align 8
  %34 = icmp eq ptr %.pre.pre, null
  br i1 %34, label %._crit_edge.thread, label %36

._crit_edge.thread:                               ; preds = %32, %18, %21, %._crit_edge
  %35 = call i64 @strlcpy(ptr noundef nonnull dereferenceable(1) %7, ptr noundef nonnull dereferenceable(1) %0, i64 noundef 4096) #12
  br label %36

36:                                               ; preds = %._crit_edge.thread, %._crit_edge
  call void @slurm_xfree(ptr noundef nonnull %3) #12
  br label %37

37:                                               ; preds = %36, %16, %9
  call void @llvm.lifetime.end.p0(i64 144, ptr nonnull %6) #12
  call void @llvm.lifetime.end.p0(i64 8, ptr nonnull %5) #12
  call void @llvm.lifetime.end.p0(i64 8, ptr nonnull %4) #12
  call void @llvm.lifetime.end.p0(i64 8, ptr nonnull %3) #12
  ret ptr %7
}